target datalayout = "e-m:e-p270:32:32-p271:32:32-p272:64:64-i64:64-i128:128-f80:128-n8:16:32:64-S128"
target triple = "x86_64-pc-linux-gnu"

%struct.ParallelApplyWorkerInfo = type { ptr, ptr, ptr, i8, i8, ptr }
%struct.ForEachState = type { ptr, i32 }
%struct.List = type { i32, i32, i32, ptr, [0 x %union.ListCell] }
%union.ListCell = type { ptr }
%struct.StringInfoData = type { ptr, i32, i32, i32 }
%struct.ErrorData = type { i32, i8, i8, i8, i8, ptr, i32, ptr, ptr, ptr, i32, ptr, ptr, ptr, ptr, ptr, ptr, ptr, ptr, ptr, ptr, ptr, ptr, i32, i32, ptr, i32, ptr }

@ParallelApplyMessagePending = dso_local global i32 0, align 4
@.str.2 = private unnamed_addr constant [22 x i8] c"applyparallelworker.c\00", align 1
@ParallelApplyWorkerPool = internal global ptr null, align 8
@HandleParallelApplyMessages.hpam_context = internal global ptr null, align 8
@InterruptHoldoffCount = external global i32, align 4
@TopMemoryContext = external global ptr, align 8
@.str.5 = private unnamed_addr constant [28 x i8] c"HandleParallelApplyMessages\00", align 1
@.str.6 = private unnamed_addr constant [65 x i8] c"lost connection to the logical replication parallel apply worker\00", align 1
@CurrentMemoryContext = external global ptr, align 8
@error_context_stack = external global ptr, align 8
@.str.17 = private unnamed_addr constant [6 x i8] c"%s\0A%s\00", align 1
@.str.18 = private unnamed_addr constant [42 x i8] c"logical replication parallel apply worker\00", align 1
@apply_error_context_stack = external global ptr, align 8
@.str.19 = private unnamed_addr constant [62 x i8] c"logical replication parallel apply worker exited due to error\00", align 1
@.str.20 = private unnamed_addr constant [3 x i8] c"%s\00", align 1
@__func__.HandleParallelApplyMessage = private unnamed_addr constant [27 x i8] c"HandleParallelApplyMessage\00", align 1
@.str.21 = private unnamed_addr constant [112 x i8] c"unrecognized message type received from logical replication parallel apply worker: %c (message length %d bytes)\00", align 1

; Function Attrs: nounwind uwtable
define internal void @HandleParallelApplyMessage(ptr noundef %0) #0 {
  %2 = alloca ptr, align 8
  %3 = alloca i8, align 1
  %4 = alloca %struct.ErrorData, align 8
  store ptr %0, ptr %2, align 8
  call void @llvm.lifetime.start.p0(i64 1, ptr %3) #9
  %5 = load ptr, ptr %2, align 8
  %6 = call i32 @pq_getmsgbyte(ptr noundef %5)
  %7 = trunc i32 %6 to i8
  store i8 %7, ptr %3, align 1
  %8 = load i8, ptr %3, align 1
  %9 = sext i8 %8 to i32
  switch i32 %9, label %41 [
    i32 69, label %10
    i32 78, label %40
    i32 65, label %40
  ]

10:                                               ; preds = %1
  call void @llvm.lifetime.start.p0(i64 184, ptr %4) #9
  %11 = load ptr, ptr %2, align 8
  call void @pq_parse_errornotice(ptr noundef %11, ptr noundef %4)
  %12 = getelementptr inbounds nuw %struct.ErrorData, ptr %4, i32 0, i32 15
  %13 = load ptr, ptr %12, align 8
  %14 = icmp ne ptr %13, null
  br i1 %14, label %15, label %20

15:                                               ; preds = %10
  %16 = getelementptr inbounds nuw %struct.ErrorData, ptr %4, i32 0, i32 15
  %17 = load ptr, ptr %16, align 8
  %18 = call ptr (ptr, ...) @psprintf(ptr noundef @.str.17, ptr noundef %17, ptr noundef @.str.18)
  %19 = getelementptr inbounds nuw %struct.ErrorData, ptr %4, i32 0, i32 15
  store ptr %18, ptr %19, align 8
  br label %23

20:                                               ; preds = %10
  %21 = call ptr @pstrdup(ptr noundef @.str.18)
  %22 = getelementptr inbounds nuw %struct.ErrorData, ptr %4, i32 0, i32 15
  store ptr %21, ptr %22, align 8
  br label %23

23:                                               ; preds = %20, %15
  %24 = load ptr, ptr @apply_error_context_stack, align 8
  store ptr %24, ptr @error_context_stack, align 8
  br label %25

25:                                               ; preds = %23
  br i1 true, label %26, label %28

26:                                               ; preds = %25
  %27 = call zeroext i1 @errstart_cold(i32 noundef 21, ptr noundef null) #10
  br i1 %27, label %30, label %37

28:                                               ; preds = %25
  %29 = call zeroext i1 @errstart(i32 noundef 21, ptr noundef null)
  br i1 %29, label %30, label %37

30:                                               ; preds = %28, %26
  %31 = call i32 @errcode(i32 noundef 325)
  %32 = call i32 (ptr, ...) @errmsg(ptr noundef @.str.19)
  %33 = call i32 @set_errcontext_domain(ptr noundef null)
  %34 = getelementptr inbounds nuw %struct.ErrorData, ptr %4, i32 0, i32 15
  %35 = load ptr, ptr %34, align 8
  %36 = call i32 (ptr, ...) @errcontext_msg(ptr noundef @.str.20, ptr noundef %35)
  call void @errfinish(ptr noundef @.str.2, i32 noundef 1041, ptr noundef @__func__.HandleParallelApplyMessage)
  br label %37

37:                                               ; preds = %30, %28, %26
  unreachable

38:                                               ; No predecessors!
  br label %39

39:                                               ; preds = %38
  call void @llvm.lifetime.end.p0(i64 184, ptr %4) #9
  br label %40

40:                                               ; preds = %1, %1, %39
  br label %57

41:                                               ; preds = %1
  br label %42

42:                                               ; preds = %41
  br i1 true, label %43, label %45

43:                                               ; preds = %42
  %44 = call zeroext i1 @errstart_cold(i32 noundef 21, ptr noundef null) #10
  br i1 %44, label %47, label %54

45:                                               ; preds = %42
  %46 = call zeroext i1 @errstart(i32 noundef 21, ptr noundef null)
  br i1 %46, label %47, label %54

47:                                               ; preds = %45, %43
  %48 = load i8, ptr %3, align 1
  %49 = sext i8 %48 to i32
  %50 = load ptr, ptr %2, align 8
  %51 = getelementptr inbounds nuw %struct.StringInfoData, ptr %50, i32 0, i32 1
  %52 = load i32, ptr %51, align 8
  %53 = call i32 (ptr, ...) @errmsg_internal(ptr noundef @.str.21, i32 noundef %49, i32 noundef %52)
  call void @errfinish(ptr noundef @.str.2, i32 noundef 1055, ptr noundef @__func__.HandleParallelApplyMessage)
  br label %54

54:                                               ; preds = %47, %45, %43
  unreachable

55:                                               ; No predecessors!
  br label %56

56:                                               ; preds = %55
  br label %57

57:                                               ; preds = %56, %40
  call void @llvm.lifetime.end.p0(i64 1, ptr %3) #9
  ret void
}

; Function Attrs: inlinehint nounwind uwtable
define internal ptr @MemoryContextSwitchTo(ptr noundef %0) #5 {
  %2 = alloca ptr, align 8
  %3 = alloca ptr, align 8
  store ptr %0, ptr %2, align 8
  call void @llvm.lifetime.start.p0(i64 8, ptr %3) #9
  %4 = load ptr, ptr @CurrentMemoryContext, align 8
  store ptr %4, ptr %3, align 8
  %5 = load ptr, ptr %2, align 8
  store ptr %5, ptr @CurrentMemoryContext, align 8
  %6 = load ptr, ptr %3, align 8
  call void @llvm.lifetime.end.p0(i64 8, ptr %3) #9
  ret ptr %6
}

; Function Attrs: nounwind uwtable
define dso_local void @HandleParallelApplyMessages() #0 {
  %1 = alloca ptr, align 8
  %2 = alloca ptr, align 8
  %3 = alloca i32, align 4
  %4 = alloca %struct.ForEachState, align 8
  %5 = alloca i32, align 4
  %6 = alloca i32, align 4
  %7 = alloca i64, align 8
  %8 = alloca ptr, align 8
  %9 = alloca ptr, align 8
  %10 = alloca %struct.StringInfoData, align 8
  call void @llvm.lifetime.start.p0(i64 8, ptr %1) #9
  call void @llvm.lifetime.start.p0(i64 8, ptr %2) #9
  %11 = load volatile i32, ptr @InterruptHoldoffCount, align 4
  %12 = add i32 %11, 1
  store volatile i32 %12, ptr @InterruptHoldoffCount, align 4
  %13 = load ptr, ptr @HandleParallelApplyMessages.hpam_context, align 8
  %14 = icmp ne ptr %13, null
  br i1 %14, label %21, label %15

15:                                               ; preds = %0
  br label %16

16:                                               ; preds = %15
  br label %17

17:                                               ; preds = %16
  br label %18

18:                                               ; preds = %17
  store i32 1, ptr %3, align 4
  %19 = load ptr, ptr @TopMemoryContext, align 8
  %20 = call ptr @AllocSetContextCreateInternal(ptr noundef %19, ptr noundef @.str.5, i64 noundef 0, i64 noundef 8192, i64 noundef 8388608)
  store ptr %20, ptr @HandleParallelApplyMessages.hpam_context, align 8
  br label %23

21:                                               ; preds = %0
  %22 = load ptr, ptr @HandleParallelApplyMessages.hpam_context, align 8
  call void @MemoryContextReset(ptr noundef %22)
  br label %23

23:                                               ; preds = %21, %18
  %24 = load ptr, ptr @HandleParallelApplyMessages.hpam_context, align 8
  %25 = call ptr @MemoryContextSwitchTo(ptr noundef %24)
  store ptr %25, ptr %2, align 8
  store volatile i32 0, ptr @ParallelApplyMessagePending, align 4
  call void @llvm.lifetime.start.p0(i64 16, ptr %4) #9
  %26 = getelementptr inbounds nuw %struct.ForEachState, ptr %4, i32 0, i32 0
  %27 = load ptr, ptr @ParallelApplyWorkerPool, align 8
  store ptr %27, ptr %26, align 8
  %28 = getelementptr inbounds nuw %struct.ForEachState, ptr %4, i32 0, i32 1
  store i32 0, ptr %28, align 8
  %29 = getelementptr i8, ptr %4, i64 12
  call void @llvm.memset.p0.i64(ptr align 4 %29, i8 0, i64 4, i1 false)
  br label %30

30:                                               ; preds = %98, %23
  %31 = getelementptr inbounds nuw %struct.ForEachState, ptr %4, i32 0, i32 0
  %32 = load ptr, ptr %31, align 8
  %33 = icmp ne ptr %32, null
  br i1 %33, label %34, label %51

34:                                               ; preds = %30
  %35 = getelementptr inbounds nuw %struct.ForEachState, ptr %4, i32 0, i32 1
  %36 = load i32, ptr %35, align 8
  %37 = getelementptr inbounds nuw %struct.ForEachState, ptr %4, i32 0, i32 0
  %38 = load ptr, ptr %37, align 8
  %39 = getelementptr inbounds nuw %struct.List, ptr %38, i32 0, i32 1
  %40 = load i32, ptr %39, align 4
  %41 = icmp slt i32 %36, %40
  br i1 %41, label %42, label %51

42:                                               ; preds = %34
  %43 = getelementptr inbounds nuw %struct.ForEachState, ptr %4, i32 0, i32 0
  %44 = load ptr, ptr %43, align 8
  %45 = getelementptr inbounds nuw %struct.List, ptr %44, i32 0, i32 3
  %46 = load ptr, ptr %45, align 8
  %47 = getelementptr inbounds nuw %struct.ForEachState, ptr %4, i32 0, i32 1
  %48 = load i32, ptr %47, align 8
  %49 = sext i32 %48 to i64
  %50 = getelementptr inbounds %union.ListCell, ptr %46, i64 %49
  store ptr %50, ptr %1, align 8
  br label %52

51:                                               ; preds = %34, %30
  store ptr null, ptr %1, align 8
  br label %52

52:                                               ; preds = %51, %42
  %53 = phi i32 [ 1, %42 ], [ 0, %51 ]
  %54 = icmp ne i32 %53, 0
  br i1 %54, label %56, label %55

55:                                               ; preds = %52
  store i32 4, ptr %5, align 4
  call void @llvm.lifetime.end.p0(i64 16, ptr %4) #9
  br label %102

56:                                               ; preds = %52
  call void @llvm.lifetime.start.p0(i64 4, ptr %6) #9
  call void @llvm.lifetime.start.p0(i64 8, ptr %7) #9
  call void @llvm.lifetime.start.p0(i64 8, ptr %8) #9
  call void @llvm.lifetime.start.p0(i64 8, ptr %9) #9
  %57 = load ptr, ptr %1, align 8
  %58 = load ptr, ptr %57, align 8
  store ptr %58, ptr %9, align 8
  %59 = load ptr, ptr %9, align 8
  %60 = getelementptr inbounds nuw %struct.ParallelApplyWorkerInfo, ptr %59, i32 0, i32 1
  %61 = load ptr, ptr %60, align 8
  %62 = icmp ne ptr %61, null
  br i1 %62, label %64, label %63

63:                                               ; preds = %56
  store i32 6, ptr %5, align 4
  br label %95

64:                                               ; preds = %56
  %65 = load ptr, ptr %9, align 8
  %66 = getelementptr inbounds nuw %struct.ParallelApplyWorkerInfo, ptr %65, i32 0, i32 1
  %67 = load ptr, ptr %66, align 8
  %68 = call i32 @shm_mq_receive(ptr noundef %67, ptr noundef %7, ptr noundef %8, i1 noundef zeroext true)
  store i32 %68, ptr %6, align 4
  %69 = load i32, ptr %6, align 4
  %70 = icmp eq i32 %69, 1
  br i1 %70, label %71, label %72

71:                                               ; preds = %64
  store i32 6, ptr %5, align 4
  br label %95

72:                                               ; preds = %64
  %73 = load i32, ptr %6, align 4
  %74 = icmp eq i32 %73, 0
  br i1 %74, label %75, label %81

75:                                               ; preds = %72
  call void @llvm.lifetime.start.p0(i64 24, ptr %10) #9
  call void @initStringInfo(ptr noundef %10)
  %76 = load ptr, ptr %8, align 8
  %77 = load i64, ptr %7, align 8
  %78 = trunc i64 %77 to i32
  call void @appendBinaryStringInfo(ptr noundef %10, ptr noundef %76, i32 noundef %78)
  call void @HandleParallelApplyMessage(ptr noundef %10)
  %79 = getelementptr inbounds nuw %struct.StringInfoData, ptr %10, i32 0, i32 0
  %80 = load ptr, ptr %79, align 8
  call void @pfree(ptr noundef %80)
  call void @llvm.lifetime.end.p0(i64 24, ptr %10) #9
  br label %93

81:                                               ; preds = %72
  br label %82

82:                                               ; preds = %81
  br i1 true, label %83, label %85

83:                                               ; preds = %82
  %84 = call zeroext i1 @errstart_cold(i32 noundef 21, ptr noundef null) #10
  br i1 %84, label %87, label %90

85:                                               ; preds = %82
  %86 = call zeroext i1 @errstart(i32 noundef 21, ptr noundef null)
  br i1 %86, label %87, label %90

87:                                               ; preds = %85, %83
  %88 = call i32 @errcode(i32 noundef 325)
  %89 = call i32 (ptr, ...) @errmsg(ptr noundef @.str.6)
  call void @errfinish(ptr noundef @.str.2, i32 noundef 1127, ptr noundef @.str.5)
  br label %90

90:                                               ; preds = %87, %85, %83
  unreachable

91:                                               ; No predecessors!
  br label %92

92:                                               ; preds = %91
  br label %93

93:                                               ; preds = %92, %75
  br label %94

94:                                               ; preds = %93
  store i32 0, ptr %5, align 4
  br label %95

95:                                               ; preds = %94, %71, %63
  call void @llvm.lifetime.end.p0(i64 8, ptr %9) #9
  call void @llvm.lifetime.end.p0(i64 8, ptr %8) #9
  call void @llvm.lifetime.end.p0(i64 8, ptr %7) #9
  call void @llvm.lifetime.end.p0(i64 4, ptr %6) #9
  %96 = load i32, ptr %5, align 4
  switch i32 %96, label %111 [
    i32 0, label %97
    i32 6, label %98
  ]

97:                                               ; preds = %95
  br label %98

98:                                               ; preds = %97, %95
  %99 = getelementptr inbounds nuw %struct.ForEachState, ptr %4, i32 0, i32 1
  %100 = load i32, ptr %99, align 8
  %101 = add i32 %100, 1
  store i32 %101, ptr %99, align 8
  br label %30, !llvm.loop !13

102:                                              ; preds = %55
  %103 = load ptr, ptr %2, align 8
  %104 = call ptr @MemoryContextSwitchTo(ptr noundef %103)
  %105 = load ptr, ptr @HandleParallelApplyMessages.hpam_context, align 8
  call void @MemoryContextReset(ptr noundef %105)
  br label %106

106:                                              ; preds = %102
  %107 = load volatile i32, ptr @InterruptHoldoffCount, align 4
  %108 = add i32 %107, -1
  store volatile i32 %108, ptr @InterruptHoldoffCount, align 4
  br label %109

109:                                              ; preds = %106
  br label %110

110:                                              ; preds = %109
  call void @llvm.lifetime.end.p0(i64 8, ptr %2) #9
  call void @llvm.lifetime.end.p0(i64 8, ptr %1) #9
  ret void

111:                                              ; preds = %95
  unreachable
}