; Function Attrs: nounwind uwtable
define dso_local void @HandleParallelApplyMessages() local_unnamed_addr #0 {
  %1 = alloca %struct.ErrorData, align 8
  %2 = alloca i64, align 8
  %3 = alloca ptr, align 8
  %4 = alloca %struct.StringInfoData, align 8
  %5 = load volatile i32, ptr @InterruptHoldoffCount, align 4
  %6 = add i32 %5, 1
  store volatile i32 %6, ptr @InterruptHoldoffCount, align 4
  %7 = load ptr, ptr @HandleParallelApplyMessages.hpam_context, align 8
  %.not = icmp eq ptr %7, null
  br i1 %.not, label %8, label %11

8:                                                ; preds = %0
  %9 = load ptr, ptr @TopMemoryContext, align 8
  %10 = tail call ptr @AllocSetContextCreateInternal(ptr noundef %9, ptr noundef nonnull @.str.5, i64 noundef 0, i64 noundef 8192, i64 noundef 8388608) #10
  store ptr %10, ptr @HandleParallelApplyMessages.hpam_context, align 8
  br label %12

11:                                               ; preds = %0
  tail call void @MemoryContextReset(ptr noundef nonnull %7) #10
  %.pre = load ptr, ptr @HandleParallelApplyMessages.hpam_context, align 8
  br label %12

12:                                               ; preds = %11, %8
  %13 = phi ptr [ %.pre, %11 ], [ %10, %8 ]
  %14 = load ptr, ptr @CurrentMemoryContext, align 8
  store ptr %13, ptr @CurrentMemoryContext, align 8
  store volatile i32 0, ptr @ParallelApplyMessagePending, align 4
  %15 = load ptr, ptr @ParallelApplyWorkerPool, align 8
  %.not13 = icmp eq ptr %15, null
  br i1 %.not13, label %._crit_edge, label %.lr.ph

.lr.ph:                                           ; preds = %12
  %16 = getelementptr inbounds nuw i8, ptr %15, i64 4
  %17 = getelementptr inbounds nuw i8, ptr %15, i64 16
  %18 = load i32, ptr %16, align 4
  %19 = icmp sgt i32 %18, 0
  br i1 %19, label %.lr.ph26, label %._crit_edge

._crit_edge.loopexit:                             ; preds = %58
  %.pre29 = load ptr, ptr @HandleParallelApplyMessages.hpam_context, align 8
  br label %._crit_edge

._crit_edge:                                      ; preds = %._crit_edge.loopexit, %.lr.ph, %12
  %20 = phi ptr [ %.pre29, %._crit_edge.loopexit ], [ %13, %.lr.ph ], [ %13, %12 ]
  store ptr %14, ptr @CurrentMemoryContext, align 8
  call void @MemoryContextReset(ptr noundef %20) #10
  %21 = load volatile i32, ptr @InterruptHoldoffCount, align 4
  %22 = add i32 %21, -1
  store volatile i32 %22, ptr @InterruptHoldoffCount, align 4
  ret void

.lr.ph26:                                         ; preds = %.lr.ph, %58
  %indvars.iv = phi i64 [ %indvars.iv.next, %58 ], [ 0, %.lr.ph ]
  %23 = load ptr, ptr %17, align 8
  %24 = getelementptr inbounds nuw %union.ListCell, ptr %23, i64 %indvars.iv
  call void @llvm.lifetime.start.p0(i64 8, ptr nonnull %2) #10
  call void @llvm.lifetime.start.p0(i64 8, ptr nonnull %3) #10
  %25 = load ptr, ptr %24, align 8
  %26 = getelementptr inbounds nuw i8, ptr %25, i64 8
  %27 = load ptr, ptr %26, align 8
  %.not15 = icmp eq ptr %27, null
  br i1 %.not15, label %58, label %28

28:                                               ; preds = %.lr.ph26
  %29 = call i32 @shm_mq_receive(ptr noundef nonnull %27, ptr noundef nonnull %2, ptr noundef nonnull %3, i1 noundef zeroext true) #10
  switch i32 %29, label %.split [
    i32 1, label %58
    i32 0, label %30
  ]

30:                                               ; preds = %28
  call void @llvm.lifetime.start.p0(i64 24, ptr nonnull %4) #10
  call void @initStringInfo(ptr noundef nonnull %4) #10
  %31 = load ptr, ptr %3, align 8
  %32 = load i64, ptr %2, align 8
  %33 = trunc i64 %32 to i32
  call void @appendBinaryStringInfo(ptr noundef nonnull %4, ptr noundef %31, i32 noundef %33) #10
  %34 = call i32 @pq_getmsgbyte(ptr noundef nonnull %4) #10
  %sext.i = shl i32 %34, 24
  %35 = ashr exact i32 %sext.i, 24
  switch i32 %35, label %.split22 [
    i32 69, label %.split24
    i32 78, label %HandleParallelApplyMessage.exit
    i32 65, label %HandleParallelApplyMessage.exit
  ]

.split24:                                         ; preds = %30
  call void @llvm.lifetime.start.p0(i64 184, ptr nonnull %1) #10
  call void @pq_parse_errornotice(ptr noundef nonnull %4, ptr noundef nonnull %1) #10
  %36 = getelementptr inbounds nuw i8, ptr %1, i64 88
  %37 = load ptr, ptr %36, align 8
  %.not.i = icmp eq ptr %37, null
  br i1 %.not.i, label %40, label %38

38:                                               ; preds = %.split24
  %39 = call ptr (ptr, ...) @psprintf(ptr noundef nonnull @.str.17, ptr noundef nonnull %37, ptr noundef nonnull @.str.18) #10
  br label %42

40:                                               ; preds = %.split24
  %41 = call ptr @pstrdup(ptr noundef nonnull @.str.18) #10
  br label %42

42:                                               ; preds = %40, %38
  %storemerge.i = phi ptr [ %41, %40 ], [ %39, %38 ]
  store ptr %storemerge.i, ptr %36, align 8
  %43 = load ptr, ptr @apply_error_context_stack, align 8
  store ptr %43, ptr @error_context_stack, align 8
  %44 = call zeroext i1 @errstart_cold(i32 noundef 21, ptr noundef null) #11
  call void @llvm.assume(i1 %44)
  %45 = call i32 @errcode(i32 noundef 325) #10
  %46 = call i32 (ptr, ...) @errmsg(ptr noundef nonnull @.str.19) #10
  %47 = call i32 @set_errcontext_domain(ptr noundef null) #10
  %48 = load ptr, ptr %36, align 8
  %49 = call i32 (ptr, ...) @errcontext_msg(ptr noundef nonnull @.str.20, ptr noundef %48) #10
  call void @errfinish(ptr noundef nonnull @.str.2, i32 noundef 1041, ptr noundef nonnull @__func__.HandleParallelApplyMessage) #10
  unreachable

.split22:                                         ; preds = %30
  %50 = call zeroext i1 @errstart_cold(i32 noundef 21, ptr noundef null) #11
  call void @llvm.assume(i1 %50)
  %51 = getelementptr inbounds nuw i8, ptr %4, i64 8
  %52 = load i32, ptr %51, align 8
  %53 = call i32 (ptr, ...) @errmsg_internal(ptr noundef nonnull @.str.21, i32 noundef %35, i32 noundef %52) #10
  call void @errfinish(ptr noundef nonnull @.str.2, i32 noundef 1055, ptr noundef nonnull @__func__.HandleParallelApplyMessage) #10
  unreachable

HandleParallelApplyMessage.exit:                  ; preds = %30, %30
  %54 = load ptr, ptr %4, align 8
  call void @pfree(ptr noundef %54) #10
  call void @llvm.lifetime.end.p0(i64 24, ptr nonnull %4) #10
  br label %58

.split:                                           ; preds = %28
  %55 = call zeroext i1 @errstart_cold(i32 noundef 21, ptr noundef null) #11
  call void @llvm.assume(i1 %55)
  %56 = call i32 @errcode(i32 noundef 325) #10
  %57 = call i32 (ptr, ...) @errmsg(ptr noundef nonnull @.str.6) #10
  call void @errfinish(ptr noundef nonnull @.str.2, i32 noundef 1127, ptr noundef nonnull @.str.5) #10
  unreachable

58:                                               ; preds = %28, %.lr.ph26, %HandleParallelApplyMessage.exit
  call void @llvm.lifetime.end.p0(i64 8, ptr nonnull %3) #10
  call void @llvm.lifetime.end.p0(i64 8, ptr nonnull %2) #10
  %indvars.iv.next = add nuw nsw i64 %indvars.iv, 1
  %59 = load i32, ptr %16, align 4
  %60 = sext i32 %59 to i64
  %61 = icmp slt i64 %indvars.iv.next, %60
  br i1 %61, label %.lr.ph26, label %._crit_edge.loopexit
}